target datalayout = "e-m:e-p270:32:32-p271:32:32-p272:64:64-i64:64-i128:128-f80:128-n8:16:32:64-S128"
target triple = "x86_64-pc-linux-gnu"

%struct.algo_time_t = type { i32, i32 }

; Function Attrs: nounwind uwtable
define i32 @HUFv07_selectDecoder(i64 noundef %0, i64 noundef %1) #0 {
  %3 = alloca i64, align 8
  %4 = alloca i64, align 8
  %5 = alloca i32, align 4
  %6 = alloca i32, align 4
  %7 = alloca i32, align 4
  %8 = alloca i32, align 4
  store i64 %0, ptr %3, align 8, !tbaa !3
  store i64 %1, ptr %4, align 8, !tbaa !3
  call void @llvm.lifetime.start.p0(i64 4, ptr %5) #11
  %9 = load i64, ptr %4, align 8, !tbaa !3
  %10 = mul i64 %9, 16
  %11 = load i64, ptr %3, align 8, !tbaa !3
  %12 = udiv i64 %10, %11
  %13 = trunc i64 %12 to i32
  store i32 %13, ptr %5, align 4, !tbaa !15
  call void @llvm.lifetime.start.p0(i64 4, ptr %6) #11
  %14 = load i64, ptr %3, align 8, !tbaa !3
  %15 = lshr i64 %14, 8
  %16 = trunc i64 %15 to i32
  store i32 %16, ptr %6, align 4, !tbaa !15
  call void @llvm.lifetime.start.p0(i64 4, ptr %7) #11
  %17 = load i32, ptr %5, align 4, !tbaa !15
  %18 = zext i32 %17 to i64
  %19 = getelementptr inbounds nuw [16 x [3 x %struct.algo_time_t]], ptr @algoTime, i64 0, i64 %18
  %20 = getelementptr inbounds [3 x %struct.algo_time_t], ptr %19, i64 0, i64 0
  %21 = getelementptr inbounds nuw %struct.algo_time_t, ptr %20, i32 0, i32 0
  %22 = load i32, ptr %21, align 8, !tbaa !64
  %23 = load i32, ptr %5, align 4, !tbaa !15
  %24 = zext i32 %23 to i64
  %25 = getelementptr inbounds nuw [16 x [3 x %struct.algo_time_t]], ptr @algoTime, i64 0, i64 %24
  %26 = getelementptr inbounds [3 x %struct.algo_time_t], ptr %25, i64 0, i64 0
  %27 = getelementptr inbounds nuw %struct.algo_time_t, ptr %26, i32 0, i32 1
  %28 = load i32, ptr %27, align 4, !tbaa !66
  %29 = load i32, ptr %6, align 4, !tbaa !15
  %30 = mul i32 %28, %29
  %31 = add i32 %22, %30
  store i32 %31, ptr %7, align 4, !tbaa !15
  call void @llvm.lifetime.start.p0(i64 4, ptr %8) #11
  %32 = load i32, ptr %5, align 4, !tbaa !15
  %33 = zext i32 %32 to i64
  %34 = getelementptr inbounds nuw [16 x [3 x %struct.algo_time_t]], ptr @algoTime, i64 0, i64 %33
  %35 = getelementptr inbounds [3 x %struct.algo_time_t], ptr %34, i64 0, i64 1
  %36 = getelementptr inbounds nuw %struct.algo_time_t, ptr %35, i32 0, i32 0
  %37 = load i32, ptr %36, align 8, !tbaa !64
  %38 = load i32, ptr %5, align 4, !tbaa !15
  %39 = zext i32 %38 to i64
  %40 = getelementptr inbounds nuw [16 x [3 x %struct.algo_time_t]], ptr @algoTime, i64 0, i64 %39
  %41 = getelementptr inbounds [3 x %struct.algo_time_t], ptr %40, i64 0, i64 1
  %42 = getelementptr inbounds nuw %struct.algo_time_t, ptr %41, i32 0, i32 1
  %43 = load i32, ptr %42, align 4, !tbaa !66
  %44 = load i32, ptr %6, align 4, !tbaa !15
  %45 = mul i32 %43, %44
  %46 = add i32 %37, %45
  store i32 %46, ptr %8, align 4, !tbaa !15
  %47 = load i32, ptr %8, align 4, !tbaa !15
  %48 = lshr i32 %47, 3
  %49 = load i32, ptr %8, align 4, !tbaa !15
  %50 = add i32 %49, %48
  store i32 %50, ptr %8, align 4, !tbaa !15
  %51 = load i32, ptr %8, align 4, !tbaa !15
  %52 = load i32, ptr %7, align 4, !tbaa !15
  %53 = icmp ult i32 %51, %52
  %54 = zext i1 %53 to i32
  call void @llvm.lifetime.end.p0(i64 4, ptr %8) #11
  call void @llvm.lifetime.end.p0(i64 4, ptr %7) #11
  call void @llvm.lifetime.end.p0(i64 4, ptr %6) #11
  call void @llvm.lifetime.end.p0(i64 4, ptr %5) #11
  ret i32 %54
}