; Function Attrs: mustprogress nofree norecurse nosync nounwind willreturn memory(none) uwtable
define range(i32 0, 2) i32 @HUFv07_selectDecoder(i64 noundef %0, i64 noundef %1) local_unnamed_addr #0 {
  %3 = shl i64 %1, 4
  %4 = udiv i64 %3, %0
  %5 = lshr i64 %0, 8
  %6 = trunc i64 %5 to i32
  %7 = and i64 %4, 4294967295
  %8 = getelementptr inbounds nuw [16 x [3 x %struct.algo_time_t]], ptr @algoTime, i64 0, i64 %7
  %9 = load i32, ptr %8, align 8, !tbaa !58
  %10 = getelementptr inbounds nuw i8, ptr %8, i64 4
  %11 = load i32, ptr %10, align 4, !tbaa !60
  %12 = mul i32 %11, %6
  %13 = add i32 %12, %9
  %14 = getelementptr inbounds nuw i8, ptr %8, i64 8
  %15 = load i32, ptr %14, align 8, !tbaa !58
  %16 = getelementptr inbounds nuw i8, ptr %8, i64 12
  %17 = load i32, ptr %16, align 4, !tbaa !60
  %18 = mul i32 %17, %6
  %19 = add i32 %18, %15
  %20 = lshr i32 %19, 3
  %21 = add i32 %20, %19
  %22 = icmp ult i32 %21, %13
  %23 = zext i1 %22 to i32
  ret i32 %23
}